target datalayout = "e-m:e-p270:32:32-p271:32:32-p272:64:64-i64:64-i128:128-f80:128-n8:16:32:64-S128"
target triple = "x86_64-pc-linux-gnu"

%"class.std::__shared_count" = type { ptr }
%"class.std::shared_ptr.3" = type { %"class.std::__shared_ptr.4" }
%"class.std::__shared_ptr.4" = type { ptr, %"class.std::__shared_count" }
%"class.rocksdb::PessimisticTransactionDB" = type { %"class.rocksdb::TransactionDB", ptr, %"class.std::shared_ptr.3", %"struct.rocksdb::TransactionDBOptions", %"class.std::shared_ptr.17", %"class.rocksdb::InstrumentedMutex", %"class.std::mutex", %"class.std::unordered_map", %"class.std::mutex", %"class.std::unordered_map.25" }
%"class.rocksdb::TransactionDB" = type { %"class.rocksdb::StackableDB" }
%"class.rocksdb::StackableDB" = type { %"class.rocksdb::DB", ptr, %"class.std::shared_ptr" }
%"class.rocksdb::DB" = type { ptr }
%"class.std::shared_ptr" = type { %"class.std::__shared_ptr" }
%"class.std::__shared_ptr" = type { ptr, %"class.std::__shared_count" }
%"struct.rocksdb::TransactionDBOptions" = type <{ i64, i32, [4 x i8], i64, i64, i64, %"class.std::shared_ptr.6", i32, i8, [3 x i8], %"class.std::shared_ptr.9", i8, [7 x i8], i64, %"class.std::function", i8, [7 x i8], %"class.std::vector.12", i32, [4 x i8], i64, i64, i8, [7 x i8] }>
%"class.std::shared_ptr.6" = type { %"class.std::__shared_ptr.7" }
%"class.std::__shared_ptr.7" = type { ptr, %"class.std::__shared_count" }
%"class.std::shared_ptr.9" = type { %"class.std::__shared_ptr.10" }
%"class.std::__shared_ptr.10" = type { ptr, %"class.std::__shared_count" }
%"class.std::function" = type { %"class.std::_Function_base", ptr }
%"class.std::_Function_base" = type { %"union.std::_Any_data", ptr }
%"union.std::_Any_data" = type { %"union.std::_Nocopy_types" }
%"union.std::_Nocopy_types" = type { { i64, i64 } }
%"class.std::vector.12" = type { %"struct.std::_Vector_base.13" }
%"struct.std::_Vector_base.13" = type { %"struct.std::_Vector_base<std::shared_ptr<rocksdb::SecondaryIndex>, std::allocator<std::shared_ptr<rocksdb::SecondaryIndex>>>::_Vector_impl" }
%"struct.std::_Vector_base<std::shared_ptr<rocksdb::SecondaryIndex>, std::allocator<std::shared_ptr<rocksdb::SecondaryIndex>>>::_Vector_impl" = type { %"struct.std::_Vector_base<std::shared_ptr<rocksdb::SecondaryIndex>, std::allocator<std::shared_ptr<rocksdb::SecondaryIndex>>>::_Vector_impl_data" }
%"struct.std::_Vector_base<std::shared_ptr<rocksdb::SecondaryIndex>, std::allocator<std::shared_ptr<rocksdb::SecondaryIndex>>>::_Vector_impl_data" = type { ptr, ptr, ptr }
%"class.std::shared_ptr.17" = type { %"class.std::__shared_ptr.18" }
%"class.std::__shared_ptr.18" = type { ptr, %"class.std::__shared_count" }
%"class.rocksdb::InstrumentedMutex" = type <{ %"class.rocksdb::port::Mutex", ptr, ptr, i32, [4 x i8] }>
%"class.rocksdb::port::Mutex" = type { %union.pthread_mutex_t }
%union.pthread_mutex_t = type { %struct.__pthread_mutex_s }
%struct.__pthread_mutex_s = type { i32, i32, i32, i32, i32, i16, i16, %struct.__pthread_internal_list }
%struct.__pthread_internal_list = type { ptr, ptr }
%"class.std::unordered_map" = type { %"class.std::_Hashtable" }
%"class.std::_Hashtable" = type { ptr, i64, %"struct.std::__detail::_Hash_node_base", i64, %"struct.std::__detail::_Prime_rehash_policy", ptr }
%"struct.std::__detail::_Hash_node_base" = type { ptr }
%"struct.std::__detail::_Prime_rehash_policy" = type { float, i64 }
%"class.std::mutex" = type { %"class.std::__mutex_base" }
%"class.std::__mutex_base" = type { %union.pthread_mutex_t }
%"class.std::unordered_map.25" = type { %"class.std::_Hashtable.26" }
%"class.std::_Hashtable.26" = type { ptr, i64, %"struct.std::__detail::_Hash_node_base", i64, %"struct.std::__detail::_Prime_rehash_policy", ptr }
%"class.rocksdb::Status" = type { i8, i8, i8, i8, i8, i8, %"class.std::unique_ptr.78" }
%"class.std::unique_ptr.78" = type { %"struct.std::__uniq_ptr_data.79" }
%"struct.std::__uniq_ptr_data.79" = type { %"class.std::__uniq_ptr_impl.80" }
%"class.std::__uniq_ptr_impl.80" = type { %"class.std::tuple.81" }
%"class.std::tuple.81" = type { %"struct.std::_Tuple_impl.82" }
%"struct.std::_Tuple_impl.82" = type { %"struct.std::_Head_base.85" }
%"struct.std::_Head_base.85" = type { ptr }

; Function Attrs: mustprogress nounwind uwtable
define linkonce_odr noundef ptr @_ZNKSt12__shared_ptrIN7rocksdb11LockManagerELN9__gnu_cxx12_Lock_policyE2EE3getEv(ptr noundef nonnull align 8 dereferenceable(16) %0) #3 comdat align 2 {
  %2 = alloca ptr, align 8
  store ptr %0, ptr %2, align 8, !tbaa !130
  %3 = load ptr, ptr %2, align 8
  %4 = getelementptr inbounds nuw %"class.std::__shared_ptr.18", ptr %3, i32 0, i32 0
  %5 = load ptr, ptr %4, align 8, !tbaa !1526
  ret ptr %5
}

; Function Attrs: mustprogress nounwind uwtable
define linkonce_odr noundef ptr @_ZNKSt19__shared_ptr_accessIN7rocksdb11LockManagerELN9__gnu_cxx12_Lock_policyE2ELb0ELb0EE6_M_getEv(ptr noundef nonnull align 1 dereferenceable(1) %0) #3 comdat align 2 {
  %2 = alloca ptr, align 8
  store ptr %0, ptr %2, align 8, !tbaa !459
  %3 = load ptr, ptr %2, align 8
  %4 = call noundef ptr @_ZNKSt12__shared_ptrIN7rocksdb11LockManagerELN9__gnu_cxx12_Lock_policyE2EE3getEv(ptr noundef nonnull align 8 dereferenceable(16) %3) #4
  ret ptr %4
}

; Function Attrs: mustprogress nounwind uwtable
define linkonce_odr noundef ptr @_ZNKSt19__shared_ptr_accessIN7rocksdb11LockManagerELN9__gnu_cxx12_Lock_policyE2ELb0ELb0EEptEv(ptr noundef nonnull align 1 dereferenceable(1) %0) #3 comdat align 2 {
  %2 = alloca ptr, align 8
  store ptr %0, ptr %2, align 8, !tbaa !459
  %3 = load ptr, ptr %2, align 8
  %4 = call noundef ptr @_ZNKSt19__shared_ptr_accessIN7rocksdb11LockManagerELN9__gnu_cxx12_Lock_policyE2ELb0ELb0EE6_M_getEv(ptr noundef nonnull align 1 dereferenceable(1) %3) #4
  ret ptr %4
}

; Function Attrs: mustprogress uwtable
define void @_ZN7rocksdb24PessimisticTransactionDB12TryRangeLockEPNS_22PessimisticTransactionEjRKNS_8EndpointES5_(ptr dead_on_unwind noalias writable sret(%"class.rocksdb::Status") align 8 %0, ptr noundef nonnull align 8 dereferenceable(520) %1, ptr noundef %2, i32 noundef %3, ptr noundef nonnull align 8 dereferenceable(17) %4, ptr noundef nonnull align 8 dereferenceable(17) %5) #5 align 2 {
  %7 = alloca ptr, align 8
  %8 = alloca ptr, align 8
  %9 = alloca ptr, align 8
  %10 = alloca i32, align 4
  %11 = alloca ptr, align 8
  %12 = alloca ptr, align 8
  store ptr %0, ptr %7, align 8
  store ptr %1, ptr %8, align 8, !tbaa !52
  store ptr %2, ptr %9, align 8, !tbaa !334
  store i32 %3, ptr %10, align 4, !tbaa !480
  store ptr %4, ptr %11, align 8, !tbaa !481
  store ptr %5, ptr %12, align 8, !tbaa !481
  %13 = load ptr, ptr %8, align 8
  %14 = getelementptr inbounds nuw %"class.rocksdb::PessimisticTransactionDB", ptr %13, i32 0, i32 4
  %15 = call noundef ptr @_ZNKSt19__shared_ptr_accessIN7rocksdb11LockManagerELN9__gnu_cxx12_Lock_policyE2ELb0ELb0EEptEv(ptr noundef nonnull align 1 dereferenceable(1) %14) #4
  %16 = load ptr, ptr %9, align 8, !tbaa !334
  %17 = load i32, ptr %10, align 4, !tbaa !480
  %18 = load ptr, ptr %11, align 8, !tbaa !481
  %19 = load ptr, ptr %12, align 8, !tbaa !481
  %20 = load ptr, ptr %13, align 8, !tbaa !58
  %21 = getelementptr inbounds ptr, ptr %20, i64 97
  %22 = load ptr, ptr %21, align 8
  %23 = call noundef ptr %22(ptr noundef nonnull align 8 dereferenceable(32) %13)
  %24 = load ptr, ptr %15, align 8, !tbaa !58
  %25 = getelementptr inbounds ptr, ptr %24, i64 8
  %26 = load ptr, ptr %25, align 8
  call void %26(ptr dead_on_unwind writable sret(%"class.rocksdb::Status") align 8 %0, ptr noundef nonnull align 8 dereferenceable(8) %15, ptr noundef %16, i32 noundef %17, ptr noundef nonnull align 8 dereferenceable(17) %18, ptr noundef nonnull align 8 dereferenceable(17) %19, ptr noundef %23, i1 noundef zeroext true)
  ret void
}